target datalayout = "e-m:e-p270:32:32-p271:32:32-p272:64:64-i64:64-i128:128-f80:128-n8:16:32:64-S128"
target triple = "x86_64-pc-linux-gnu"

%struct._zend_llist = type { ptr, ptr, i64, i64, ptr, i8, ptr }
%struct._zend_llist_element = type { ptr, ptr, [1 x i8] }

; Function Attrs: nounwind uwtable
define void @zend_llist_add_element(ptr noundef %0, ptr noundef %1) #0 {
  %3 = alloca ptr, align 8
  %4 = alloca ptr, align 8
  %5 = alloca ptr, align 8
  store ptr %0, ptr %3, align 8
  store ptr %1, ptr %4, align 8
  %6 = load ptr, ptr %3, align 8
  %7 = getelementptr inbounds %struct._zend_llist, ptr %6, i32 0, i32 5
  %8 = load i8, ptr %7, align 8
  %9 = zext i8 %8 to i32
  %10 = icmp ne i32 %9, 0
  br i1 %10, label %11, label %18

11:                                               ; preds = %2
  %12 = load ptr, ptr %3, align 8
  %13 = getelementptr inbounds %struct._zend_llist, ptr %12, i32 0, i32 3
  %14 = load i64, ptr %13, align 8
  %15 = add i64 24, %14
  %16 = sub i64 %15, 1
  %17 = call noalias ptr @__zend_malloc(i64 noundef %16) #7
  br label %387

18:                                               ; preds = %2
  %19 = load ptr, ptr %3, align 8
  %20 = getelementptr inbounds %struct._zend_llist, ptr %19, i32 0, i32 3
  %21 = load i64, ptr %20, align 8
  %22 = add i64 24, %21
  %23 = sub i64 %22, 1
  %24 = call i1 @llvm.is.constant.i64(i64 %23)
  br i1 %24, label %25, label %378

25:                                               ; preds = %18
  %26 = load ptr, ptr %3, align 8
  %27 = getelementptr inbounds %struct._zend_llist, ptr %26, i32 0, i32 3
  %28 = load i64, ptr %27, align 8
  %29 = add i64 24, %28
  %30 = sub i64 %29, 1
  %31 = icmp ule i64 %30, 8
  br i1 %31, label %32, label %34

32:                                               ; preds = %25
  %33 = call noalias ptr @_emalloc_8()
  br label %376

34:                                               ; preds = %25
  %35 = load ptr, ptr %3, align 8
  %36 = getelementptr inbounds %struct._zend_llist, ptr %35, i32 0, i32 3
  %37 = load i64, ptr %36, align 8
  %38 = add i64 24, %37
  %39 = sub i64 %38, 1
  %40 = icmp ule i64 %39, 16
  br i1 %40, label %41, label %43

41:                                               ; preds = %34
  %42 = call noalias ptr @_emalloc_16()
  br label %374

43:                                               ; preds = %34
  %44 = load ptr, ptr %3, align 8
  %45 = getelementptr inbounds %struct._zend_llist, ptr %44, i32 0, i32 3
  %46 = load i64, ptr %45, align 8
  %47 = add i64 24, %46
  %48 = sub i64 %47, 1
  %49 = icmp ule i64 %48, 24
  br i1 %49, label %50, label %52

50:                                               ; preds = %43
  %51 = call noalias ptr @_emalloc_24()
  br label %372

52:                                               ; preds = %43
  %53 = load ptr, ptr %3, align 8
  %54 = getelementptr inbounds %struct._zend_llist, ptr %53, i32 0, i32 3
  %55 = load i64, ptr %54, align 8
  %56 = add i64 24, %55
  %57 = sub i64 %56, 1
  %58 = icmp ule i64 %57, 32
  br i1 %58, label %59, label %61

59:                                               ; preds = %52
  %60 = call noalias ptr @_emalloc_32()
  br label %370

61:                                               ; preds = %52
  %62 = load ptr, ptr %3, align 8
  %63 = getelementptr inbounds %struct._zend_llist, ptr %62, i32 0, i32 3
  %64 = load i64, ptr %63, align 8
  %65 = add i64 24, %64
  %66 = sub i64 %65, 1
  %67 = icmp ule i64 %66, 40
  br i1 %67, label %68, label %70

68:                                               ; preds = %61
  %69 = call noalias ptr @_emalloc_40()
  br label %368

70:                                               ; preds = %61
  %71 = load ptr, ptr %3, align 8
  %72 = getelementptr inbounds %struct._zend_llist, ptr %71, i32 0, i32 3
  %73 = load i64, ptr %72, align 8
  %74 = add i64 24, %73
  %75 = sub i64 %74, 1
  %76 = icmp ule i64 %75, 48
  br i1 %76, label %77, label %79

77:                                               ; preds = %70
  %78 = call noalias ptr @_emalloc_48()
  br label %366

79:                                               ; preds = %70
  %80 = load ptr, ptr %3, align 8
  %81 = getelementptr inbounds %struct._zend_llist, ptr %80, i32 0, i32 3
  %82 = load i64, ptr %81, align 8
  %83 = add i64 24, %82
  %84 = sub i64 %83, 1
  %85 = icmp ule i64 %84, 56
  br i1 %85, label %86, label %88

86:                                               ; preds = %79
  %87 = call noalias ptr @_emalloc_56()
  br label %364

88:                                               ; preds = %79
  %89 = load ptr, ptr %3, align 8
  %90 = getelementptr inbounds %struct._zend_llist, ptr %89, i32 0, i32 3
  %91 = load i64, ptr %90, align 8
  %92 = add i64 24, %91
  %93 = sub i64 %92, 1
  %94 = icmp ule i64 %93, 64
  br i1 %94, label %95, label %97

95:                                               ; preds = %88
  %96 = call noalias ptr @_emalloc_64()
  br label %362

97:                                               ; preds = %88
  %98 = load ptr, ptr %3, align 8
  %99 = getelementptr inbounds %struct._zend_llist, ptr %98, i32 0, i32 3
  %100 = load i64, ptr %99, align 8
  %101 = add i64 24, %100
  %102 = sub i64 %101, 1
  %103 = icmp ule i64 %102, 80
  br i1 %103, label %104, label %106

104:                                              ; preds = %97
  %105 = call noalias ptr @_emalloc_80()
  br label %360

106:                                              ; preds = %97
  %107 = load ptr, ptr %3, align 8
  %108 = getelementptr inbounds %struct._zend_llist, ptr %107, i32 0, i32 3
  %109 = load i64, ptr %108, align 8
  %110 = add i64 24, %109
  %111 = sub i64 %110, 1
  %112 = icmp ule i64 %111, 96
  br i1 %112, label %113, label %115

113:                                              ; preds = %106
  %114 = call noalias ptr @_emalloc_96()
  br label %358

115:                                              ; preds = %106
  %116 = load ptr, ptr %3, align 8
  %117 = getelementptr inbounds %struct._zend_llist, ptr %116, i32 0, i32 3
  %118 = load i64, ptr %117, align 8
  %119 = add i64 24, %118
  %120 = sub i64 %119, 1
  %121 = icmp ule i64 %120, 112
  br i1 %121, label %122, label %124

122:                                              ; preds = %115
  %123 = call noalias ptr @_emalloc_112()
  br label %356

124:                                              ; preds = %115
  %125 = load ptr, ptr %3, align 8
  %126 = getelementptr inbounds %struct._zend_llist, ptr %125, i32 0, i32 3
  %127 = load i64, ptr %126, align 8
  %128 = add i64 24, %127
  %129 = sub i64 %128, 1
  %130 = icmp ule i64 %129, 128
  br i1 %130, label %131, label %133

131:                                              ; preds = %124
  %132 = call noalias ptr @_emalloc_128()
  br label %354

133:                                              ; preds = %124
  %134 = load ptr, ptr %3, align 8
  %135 = getelementptr inbounds %struct._zend_llist, ptr %134, i32 0, i32 3
  %136 = load i64, ptr %135, align 8
  %137 = add i64 24, %136
  %138 = sub i64 %137, 1
  %139 = icmp ule i64 %138, 160
  br i1 %139, label %140, label %142

140:                                              ; preds = %133
  %141 = call noalias ptr @_emalloc_160()
  br label %352

142:                                              ; preds = %133
  %143 = load ptr, ptr %3, align 8
  %144 = getelementptr inbounds %struct._zend_llist, ptr %143, i32 0, i32 3
  %145 = load i64, ptr %144, align 8
  %146 = add i64 24, %145
  %147 = sub i64 %146, 1
  %148 = icmp ule i64 %147, 192
  br i1 %148, label %149, label %151

149:                                              ; preds = %142
  %150 = call noalias ptr @_emalloc_192()
  br label %350

151:                                              ; preds = %142
  %152 = load ptr, ptr %3, align 8
  %153 = getelementptr inbounds %struct._zend_llist, ptr %152, i32 0, i32 3
  %154 = load i64, ptr %153, align 8
  %155 = add i64 24, %154
  %156 = sub i64 %155, 1
  %157 = icmp ule i64 %156, 224
  br i1 %157, label %158, label %160

158:                                              ; preds = %151
  %159 = call noalias ptr @_emalloc_224()
  br label %348

160:                                              ; preds = %151
  %161 = load ptr, ptr %3, align 8
  %162 = getelementptr inbounds %struct._zend_llist, ptr %161, i32 0, i32 3
  %163 = load i64, ptr %162, align 8
  %164 = add i64 24, %163
  %165 = sub i64 %164, 1
  %166 = icmp ule i64 %165, 256
  br i1 %166, label %167, label %169

167:                                              ; preds = %160
  %168 = call noalias ptr @_emalloc_256()
  br label %346

169:                                              ; preds = %160
  %170 = load ptr, ptr %3, align 8
  %171 = getelementptr inbounds %struct._zend_llist, ptr %170, i32 0, i32 3
  %172 = load i64, ptr %171, align 8
  %173 = add i64 24, %172
  %174 = sub i64 %173, 1
  %175 = icmp ule i64 %174, 320
  br i1 %175, label %176, label %178

176:                                              ; preds = %169
  %177 = call noalias ptr @_emalloc_320()
  br label %344

178:                                              ; preds = %169
  %179 = load ptr, ptr %3, align 8
  %180 = getelementptr inbounds %struct._zend_llist, ptr %179, i32 0, i32 3
  %181 = load i64, ptr %180, align 8
  %182 = add i64 24, %181
  %183 = sub i64 %182, 1
  %184 = icmp ule i64 %183, 384
  br i1 %184, label %185, label %187

185:                                              ; preds = %178
  %186 = call noalias ptr @_emalloc_384()
  br label %342

187:                                              ; preds = %178
  %188 = load ptr, ptr %3, align 8
  %189 = getelementptr inbounds %struct._zend_llist, ptr %188, i32 0, i32 3
  %190 = load i64, ptr %189, align 8
  %191 = add i64 24, %190
  %192 = sub i64 %191, 1
  %193 = icmp ule i64 %192, 448
  br i1 %193, label %194, label %196

194:                                              ; preds = %187
  %195 = call noalias ptr @_emalloc_448()
  br label %340

196:                                              ; preds = %187
  %197 = load ptr, ptr %3, align 8
  %198 = getelementptr inbounds %struct._zend_llist, ptr %197, i32 0, i32 3
  %199 = load i64, ptr %198, align 8
  %200 = add i64 24, %199
  %201 = sub i64 %200, 1
  %202 = icmp ule i64 %201, 512
  br i1 %202, label %203, label %205

203:                                              ; preds = %196
  %204 = call noalias ptr @_emalloc_512()
  br label %338

205:                                              ; preds = %196
  %206 = load ptr, ptr %3, align 8
  %207 = getelementptr inbounds %struct._zend_llist, ptr %206, i32 0, i32 3
  %208 = load i64, ptr %207, align 8
  %209 = add i64 24, %208
  %210 = sub i64 %209, 1
  %211 = icmp ule i64 %210, 640
  br i1 %211, label %212, label %214

212:                                              ; preds = %205
  %213 = call noalias ptr @_emalloc_640()
  br label %336

214:                                              ; preds = %205
  %215 = load ptr, ptr %3, align 8
  %216 = getelementptr inbounds %struct._zend_llist, ptr %215, i32 0, i32 3
  %217 = load i64, ptr %216, align 8
  %218 = add i64 24, %217
  %219 = sub i64 %218, 1
  %220 = icmp ule i64 %219, 768
  br i1 %220, label %221, label %223

221:                                              ; preds = %214
  %222 = call noalias ptr @_emalloc_768()
  br label %334

223:                                              ; preds = %214
  %224 = load ptr, ptr %3, align 8
  %225 = getelementptr inbounds %struct._zend_llist, ptr %224, i32 0, i32 3
  %226 = load i64, ptr %225, align 8
  %227 = add i64 24, %226
  %228 = sub i64 %227, 1
  %229 = icmp ule i64 %228, 896
  br i1 %229, label %230, label %232

230:                                              ; preds = %223
  %231 = call noalias ptr @_emalloc_896()
  br label %332

232:                                              ; preds = %223
  %233 = load ptr, ptr %3, align 8
  %234 = getelementptr inbounds %struct._zend_llist, ptr %233, i32 0, i32 3
  %235 = load i64, ptr %234, align 8
  %236 = add i64 24, %235
  %237 = sub i64 %236, 1
  %238 = icmp ule i64 %237, 1024
  br i1 %238, label %239, label %241

239:                                              ; preds = %232
  %240 = call noalias ptr @_emalloc_1024()
  br label %330

241:                                              ; preds = %232
  %242 = load ptr, ptr %3, align 8
  %243 = getelementptr inbounds %struct._zend_llist, ptr %242, i32 0, i32 3
  %244 = load i64, ptr %243, align 8
  %245 = add i64 24, %244
  %246 = sub i64 %245, 1
  %247 = icmp ule i64 %246, 1280
  br i1 %247, label %248, label %250

248:                                              ; preds = %241
  %249 = call noalias ptr @_emalloc_1280()
  br label %328

250:                                              ; preds = %241
  %251 = load ptr, ptr %3, align 8
  %252 = getelementptr inbounds %struct._zend_llist, ptr %251, i32 0, i32 3
  %253 = load i64, ptr %252, align 8
  %254 = add i64 24, %253
  %255 = sub i64 %254, 1
  %256 = icmp ule i64 %255, 1536
  br i1 %256, label %257, label %259

257:                                              ; preds = %250
  %258 = call noalias ptr @_emalloc_1536()
  br label %326

259:                                              ; preds = %250
  %260 = load ptr, ptr %3, align 8
  %261 = getelementptr inbounds %struct._zend_llist, ptr %260, i32 0, i32 3
  %262 = load i64, ptr %261, align 8
  %263 = add i64 24, %262
  %264 = sub i64 %263, 1
  %265 = icmp ule i64 %264, 1792
  br i1 %265, label %266, label %268

266:                                              ; preds = %259
  %267 = call noalias ptr @_emalloc_1792()
  br label %324

268:                                              ; preds = %259
  %269 = load ptr, ptr %3, align 8
  %270 = getelementptr inbounds %struct._zend_llist, ptr %269, i32 0, i32 3
  %271 = load i64, ptr %270, align 8
  %272 = add i64 24, %271
  %273 = sub i64 %272, 1
  %274 = icmp ule i64 %273, 2048
  br i1 %274, label %275, label %277

275:                                              ; preds = %268
  %276 = call noalias ptr @_emalloc_2048()
  br label %322

277:                                              ; preds = %268
  %278 = load ptr, ptr %3, align 8
  %279 = getelementptr inbounds %struct._zend_llist, ptr %278, i32 0, i32 3
  %280 = load i64, ptr %279, align 8
  %281 = add i64 24, %280
  %282 = sub i64 %281, 1
  %283 = icmp ule i64 %282, 2560
  br i1 %283, label %284, label %286

284:                                              ; preds = %277
  %285 = call noalias ptr @_emalloc_2560()
  br label %320

286:                                              ; preds = %277
  %287 = load ptr, ptr %3, align 8
  %288 = getelementptr inbounds %struct._zend_llist, ptr %287, i32 0, i32 3
  %289 = load i64, ptr %288, align 8
  %290 = add i64 24, %289
  %291 = sub i64 %290, 1
  %292 = icmp ule i64 %291, 3072
  br i1 %292, label %293, label %295

293:                                              ; preds = %286
  %294 = call noalias ptr @_emalloc_3072()
  br label %318

295:                                              ; preds = %286
  %296 = load ptr, ptr %3, align 8
  %297 = getelementptr inbounds %struct._zend_llist, ptr %296, i32 0, i32 3
  %298 = load i64, ptr %297, align 8
  %299 = add i64 24, %298
  %300 = sub i64 %299, 1
  %301 = icmp ule i64 %300, 2093056
  br i1 %301, label %302, label %309

302:                                              ; preds = %295
  %303 = load ptr, ptr %3, align 8
  %304 = getelementptr inbounds %struct._zend_llist, ptr %303, i32 0, i32 3
  %305 = load i64, ptr %304, align 8
  %306 = add i64 24, %305
  %307 = sub i64 %306, 1
  %308 = call noalias ptr @_emalloc_large(i64 noundef %307) #7
  br label %316

309:                                              ; preds = %295
  %310 = load ptr, ptr %3, align 8
  %311 = getelementptr inbounds %struct._zend_llist, ptr %310, i32 0, i32 3
  %312 = load i64, ptr %311, align 8
  %313 = add i64 24, %312
  %314 = sub i64 %313, 1
  %315 = call noalias ptr @_emalloc_huge(i64 noundef %314) #7
  br label %316

316:                                              ; preds = %309, %302
  %317 = phi ptr [ %308, %302 ], [ %315, %309 ]
  br label %318

318:                                              ; preds = %316, %293
  %319 = phi ptr [ %294, %293 ], [ %317, %316 ]
  br label %320

320:                                              ; preds = %318, %284
  %321 = phi ptr [ %285, %284 ], [ %319, %318 ]
  br label %322

322:                                              ; preds = %320, %275
  %323 = phi ptr [ %276, %275 ], [ %321, %320 ]
  br label %324

324:                                              ; preds = %322, %266
  %325 = phi ptr [ %267, %266 ], [ %323, %322 ]
  br label %326

326:                                              ; preds = %324, %257
  %327 = phi ptr [ %258, %257 ], [ %325, %324 ]
  br label %328

328:                                              ; preds = %326, %248
  %329 = phi ptr [ %249, %248 ], [ %327, %326 ]
  br label %330

330:                                              ; preds = %328, %239
  %331 = phi ptr [ %240, %239 ], [ %329, %328 ]
  br label %332

332:                                              ; preds = %330, %230
  %333 = phi ptr [ %231, %230 ], [ %331, %330 ]
  br label %334

334:                                              ; preds = %332, %221
  %335 = phi ptr [ %222, %221 ], [ %333, %332 ]
  br label %336

336:                                              ; preds = %334, %212
  %337 = phi ptr [ %213, %212 ], [ %335, %334 ]
  br label %338

338:                                              ; preds = %336, %203
  %339 = phi ptr [ %204, %203 ], [ %337, %336 ]
  br label %340

340:                                              ; preds = %338, %194
  %341 = phi ptr [ %195, %194 ], [ %339, %338 ]
  br label %342

342:                                              ; preds = %340, %185
  %343 = phi ptr [ %186, %185 ], [ %341, %340 ]
  br label %344

344:                                              ; preds = %342, %176
  %345 = phi ptr [ %177, %176 ], [ %343, %342 ]
  br label %346

346:                                              ; preds = %344, %167
  %347 = phi ptr [ %168, %167 ], [ %345, %344 ]
  br label %348

348:                                              ; preds = %346, %158
  %349 = phi ptr [ %159, %158 ], [ %347, %346 ]
  br label %350

350:                                              ; preds = %348, %149
  %351 = phi ptr [ %150, %149 ], [ %349, %348 ]
  br label %352

352:                                              ; preds = %350, %140
  %353 = phi ptr [ %141, %140 ], [ %351, %350 ]
  br label %354

354:                                              ; preds = %352, %131
  %355 = phi ptr [ %132, %131 ], [ %353, %352 ]
  br label %356

356:                                              ; preds = %354, %122
  %357 = phi ptr [ %123, %122 ], [ %355, %354 ]
  br label %358

358:                                              ; preds = %356, %113
  %359 = phi ptr [ %114, %113 ], [ %357, %356 ]
  br label %360

360:                                              ; preds = %358, %104
  %361 = phi ptr [ %105, %104 ], [ %359, %358 ]
  br label %362

362:                                              ; preds = %360, %95
  %363 = phi ptr [ %96, %95 ], [ %361, %360 ]
  br label %364

364:                                              ; preds = %362, %86
  %365 = phi ptr [ %87, %86 ], [ %363, %362 ]
  br label %366

366:                                              ; preds = %364, %77
  %367 = phi ptr [ %78, %77 ], [ %365, %364 ]
  br label %368

368:                                              ; preds = %366, %68
  %369 = phi ptr [ %69, %68 ], [ %367, %366 ]
  br label %370

370:                                              ; preds = %368, %59
  %371 = phi ptr [ %60, %59 ], [ %369, %368 ]
  br label %372

372:                                              ; preds = %370, %50
  %373 = phi ptr [ %51, %50 ], [ %371, %370 ]
  br label %374

374:                                              ; preds = %372, %41
  %375 = phi ptr [ %42, %41 ], [ %373, %372 ]
  br label %376

376:                                              ; preds = %374, %32
  %377 = phi ptr [ %33, %32 ], [ %375, %374 ]
  br label %385

378:                                              ; preds = %18
  %379 = load ptr, ptr %3, align 8
  %380 = getelementptr inbounds %struct._zend_llist, ptr %379, i32 0, i32 3
  %381 = load i64, ptr %380, align 8
  %382 = add i64 24, %381
  %383 = sub i64 %382, 1
  %384 = call noalias ptr @_emalloc(i64 noundef %383) #7
  br label %385

385:                                              ; preds = %378, %376
  %386 = phi ptr [ %377, %376 ], [ %384, %378 ]
  br label %387

387:                                              ; preds = %385, %11
  %388 = phi ptr [ %17, %11 ], [ %386, %385 ]
  store ptr %388, ptr %5, align 8
  %389 = load ptr, ptr %3, align 8
  %390 = getelementptr inbounds %struct._zend_llist, ptr %389, i32 0, i32 1
  %391 = load ptr, ptr %390, align 8
  %392 = load ptr, ptr %5, align 8
  %393 = getelementptr inbounds %struct._zend_llist_element, ptr %392, i32 0, i32 1
  store ptr %391, ptr %393, align 8
  %394 = load ptr, ptr %5, align 8
  %395 = getelementptr inbounds %struct._zend_llist_element, ptr %394, i32 0, i32 0
  store ptr null, ptr %395, align 8
  %396 = load ptr, ptr %3, align 8
  %397 = getelementptr inbounds %struct._zend_llist, ptr %396, i32 0, i32 1
  %398 = load ptr, ptr %397, align 8
  %399 = icmp ne ptr %398, null
  br i1 %399, label %400, label %406

400:                                              ; preds = %387
  %401 = load ptr, ptr %5, align 8
  %402 = load ptr, ptr %3, align 8
  %403 = getelementptr inbounds %struct._zend_llist, ptr %402, i32 0, i32 1
  %404 = load ptr, ptr %403, align 8
  %405 = getelementptr inbounds %struct._zend_llist_element, ptr %404, i32 0, i32 0
  store ptr %401, ptr %405, align 8
  br label %410

406:                                              ; preds = %387
  %407 = load ptr, ptr %5, align 8
  %408 = load ptr, ptr %3, align 8
  %409 = getelementptr inbounds %struct._zend_llist, ptr %408, i32 0, i32 0
  store ptr %407, ptr %409, align 8
  br label %410

410:                                              ; preds = %406, %400
  %411 = load ptr, ptr %5, align 8
  %412 = load ptr, ptr %3, align 8
  %413 = getelementptr inbounds %struct._zend_llist, ptr %412, i32 0, i32 1
  store ptr %411, ptr %413, align 8
  %414 = load ptr, ptr %5, align 8
  %415 = getelementptr inbounds %struct._zend_llist_element, ptr %414, i32 0, i32 2
  %416 = getelementptr inbounds [1 x i8], ptr %415, i64 0, i64 0
  %417 = load ptr, ptr %4, align 8
  %418 = load ptr, ptr %3, align 8
  %419 = getelementptr inbounds %struct._zend_llist, ptr %418, i32 0, i32 3
  %420 = load i64, ptr %419, align 8
  call void @llvm.memcpy.p0.p0.i64(ptr align 8 %416, ptr align 1 %417, i64 %420, i1 false)
  %421 = load ptr, ptr %3, align 8
  %422 = getelementptr inbounds %struct._zend_llist, ptr %421, i32 0, i32 2
  %423 = load i64, ptr %422, align 8
  %424 = add i64 %423, 1
  store i64 %424, ptr %422, align 8
  ret void
}