; Function Attrs: nounwind uwtable
define void @zend_llist_add_element(ptr nocapture noundef %0, ptr nocapture noundef readonly %1) local_unnamed_addr #1 {
  %3 = getelementptr inbounds i8, ptr %0, i64 40
  %4 = load i8, ptr %3, align 8
  %.not = icmp eq i8 %4, 0
  %5 = getelementptr inbounds i8, ptr %0, i64 24
  %6 = load i64, ptr %5, align 8
  %7 = add i64 %6, 23
  br i1 %.not, label %10, label %8

8:                                                ; preds = %2
  %9 = tail call noalias ptr @__zend_malloc(i64 noundef %7) #12
  br label %12

10:                                               ; preds = %2
  %11 = tail call noalias ptr @_emalloc(i64 noundef %7) #12
  br label %12

12:                                               ; preds = %10, %8
  %13 = phi ptr [ %9, %8 ], [ %11, %10 ]
  %14 = getelementptr inbounds i8, ptr %0, i64 8
  %15 = load ptr, ptr %14, align 8
  %16 = getelementptr inbounds i8, ptr %13, i64 8
  store ptr %15, ptr %16, align 8
  store ptr null, ptr %13, align 8
  %.not52 = icmp eq ptr %15, null
  %. = select i1 %.not52, ptr %0, ptr %15
  store ptr %13, ptr %., align 8
  store ptr %13, ptr %14, align 8
  %17 = getelementptr inbounds i8, ptr %13, i64 16
  %18 = getelementptr inbounds i8, ptr %0, i64 24
  %19 = load i64, ptr %18, align 8
  tail call void @llvm.memcpy.p0.p0.i64(ptr nonnull align 8 %17, ptr align 1 %1, i64 %19, i1 false)
  %20 = getelementptr inbounds i8, ptr %0, i64 16
  %21 = load i64, ptr %20, align 8
  %22 = add i64 %21, 1
  store i64 %22, ptr %20, align 8
  ret void
}